; Function Attrs: nounwind uwtable
define internal ptr @get_co_framesize(ptr readnone captures(none) %0, ptr noundef readonly captures(none) %1) #0 {
  %3 = getelementptr i8, ptr %1, i64 8
  %.val = load ptr, ptr %3, align 8, !tbaa !46
  %.not = icmp eq ptr %.val, @PyCode_Type
  br i1 %.not, label %6, label %4

4:                                                ; preds = %2
  %5 = load ptr, ptr @PyExc_TypeError, align 8, !tbaa !9
  tail call void @PyErr_SetString(ptr noundef %5, ptr noundef nonnull @.str.206) #11
  br label %11

6:                                                ; preds = %2
  %7 = getelementptr inbounds nuw i8, ptr %1, i64 76
  %8 = load i32, ptr %7, align 4, !tbaa !143
  %9 = sext i32 %8 to i64
  %10 = tail call ptr @PyLong_FromLong(i64 noundef %9) #11
  br label %11

11:                                               ; preds = %6, %4
  %.0 = phi ptr [ %10, %6 ], [ null, %4 ]
  ret ptr %.0
}